; Function Attrs: mustprogress uwtable
define noundef nonnull align 8 dereferenceable(16) ptr @_ZN11OpenImageIO6v3_1_08ArgParse5introENS0_17basic_string_viewIcSt11char_traitsIcEEE(ptr noundef nonnull readonly returned align 8 dereferenceable(16) %0, ptr noundef readonly captures(none) %1) local_unnamed_addr #5 align 2 {
  %3 = load ptr, ptr %0, align 8, !tbaa !107
  %4 = getelementptr inbounds nuw i8, ptr %3, i64 72
  %5 = load ptr, ptr %1, align 8, !tbaa !15
  %6 = getelementptr inbounds nuw i8, ptr %1, i64 8
  %7 = load i64, ptr %6, align 8, !tbaa !17
  %8 = getelementptr inbounds nuw i8, ptr %3, i64 80
  %9 = load i64, ptr %8, align 8, !tbaa !11
  %10 = tail call noundef nonnull align 8 dereferenceable(32) ptr @_ZNSt7__cxx1112basic_stringIcSt11char_traitsIcESaIcEE10_M_replaceEmmPKcm(ptr noundef nonnull align 8 dereferenceable(32) %4, i64 noundef 0, i64 noundef %9, ptr noundef %5, i64 noundef %7)
  ret ptr %0
}